; Function Attrs: mustprogress uwtable
define dso_local void @_ZN22btBvhTriangleMeshShape15setLocalScalingERK9btVector3(ptr noundef nonnull align 8 dereferenceable(109) %this, ptr noundef nonnull align 4 dereferenceable(16) %scaling) unnamed_addr #6 align 2 personality ptr @__gxx_personality_v0 {
entry:
  %vtable = load ptr, ptr %this, align 8
  %vfn = getelementptr inbounds i8, ptr %vtable, i64 56
  %0 = load ptr, ptr %vfn, align 8
  %call = tail call noundef nonnull align 4 dereferenceable(16) ptr %0(ptr noundef nonnull align 8 dereferenceable(80) %this)
  %1 = load float, ptr %call, align 4
  %2 = load float, ptr %scaling, align 4
  %sub.i = fsub float %1, %2
  %arrayidx5.i = getelementptr inbounds i8, ptr %call, i64 4
  %3 = load float, ptr %arrayidx5.i, align 4
  %arrayidx7.i = getelementptr inbounds i8, ptr %scaling, i64 4
  %4 = load float, ptr %arrayidx7.i, align 4
  %sub8.i = fsub float %3, %4
  %arrayidx11.i = getelementptr inbounds i8, ptr %call, i64 8
  %5 = load float, ptr %arrayidx11.i, align 4
  %arrayidx13.i = getelementptr inbounds i8, ptr %scaling, i64 8
  %6 = load float, ptr %arrayidx13.i, align 4
  %sub14.i = fsub float %5, %6
  %mul8.i.i = fmul float %sub8.i, %sub8.i
  %7 = tail call float @llvm.fmuladd.f32(float %sub.i, float %sub.i, float %mul8.i.i)
  %8 = tail call noundef float @llvm.fmuladd.f32(float %sub14.i, float %sub14.i, float %7)
  %cmp = fcmp ogt float %8, 0x3E80000000000000
  br i1 %cmp, label %if.then, label %if.end

if.then:                                          ; preds = %entry
  tail call void @_ZN19btTriangleMeshShape15setLocalScalingERK9btVector3(ptr noundef nonnull align 8 dereferenceable(80) %this, ptr noundef nonnull align 4 dereferenceable(16) %scaling)
  %m_ownsBvh.i = getelementptr inbounds i8, ptr %this, i64 97
  %9 = load i8, ptr %m_ownsBvh.i, align 1
  %10 = and i8 %9, 1
  %tobool.not.i = icmp eq i8 %10, 0
  br i1 %tobool.not.i, label %_ZN22btBvhTriangleMeshShape17buildOptimizedBvhEv.exit, label %if.then.i

if.then.i:                                        ; preds = %if.then
  %m_bvh.i = getelementptr inbounds i8, ptr %this, i64 80
  %11 = load ptr, ptr %m_bvh.i, align 8
  %vtable.i = load ptr, ptr %11, align 8
  %12 = load ptr, ptr %vtable.i, align 8
  tail call void %12(ptr noundef nonnull align 8 dereferenceable(244) %11) #10
  %13 = load ptr, ptr %m_bvh.i, align 8
  tail call void @_Z21btAlignedFreeInternalPv(ptr noundef %13)
  br label %_ZN22btBvhTriangleMeshShape17buildOptimizedBvhEv.exit

_ZN22btBvhTriangleMeshShape17buildOptimizedBvhEv.exit: ; preds = %if.then, %if.then.i
  %call.i = tail call noundef ptr @_Z22btAlignedAllocInternalmi(i64 noundef 248, i32 noundef 16)
  tail call void @_ZN14btOptimizedBvhC1Ev(ptr noundef nonnull align 8 dereferenceable(244) %call.i)
  %m_bvh4.i = getelementptr inbounds i8, ptr %this, i64 80
  store ptr %call.i, ptr %m_bvh4.i, align 8
  %m_meshInterface.i = getelementptr inbounds i8, ptr %this, i64 72
  %14 = load ptr, ptr %m_meshInterface.i, align 8
  %m_useQuantizedAabbCompression.i = getelementptr inbounds i8, ptr %this, i64 96
  %15 = load i8, ptr %m_useQuantizedAabbCompression.i, align 8
  %16 = and i8 %15, 1
  %tobool6.i = icmp ne i8 %16, 0
  %m_localAabbMin.i = getelementptr inbounds i8, ptr %this, i64 36
  %m_localAabbMax.i = getelementptr inbounds i8, ptr %this, i64 52
  tail call void @_ZN14btOptimizedBvh5buildEP23btStridingMeshInterfacebRK9btVector3S4_(ptr noundef nonnull align 8 dereferenceable(244) %call.i, ptr noundef %14, i1 noundef zeroext %tobool6.i, ptr noundef nonnull align 4 dereferenceable(16) %m_localAabbMin.i, ptr noundef nonnull align 4 dereferenceable(16) %m_localAabbMax.i)
  store i8 1, ptr %m_ownsBvh.i, align 1
  br label %if.end

if.end:                                           ; preds = %_ZN22btBvhTriangleMeshShape17buildOptimizedBvhEv.exit, %entry
  ret void
}